target datalayout = "e-m:e-p270:32:32-p271:32:32-p272:64:64-i64:64-i128:128-f80:128-n8:16:32:64-S128"
target triple = "x86_64-pc-linux-gnu"

%class.LogTagSet = type { ptr, i64, [5 x i32], [4 x i8], %class.LogOutputList, %class.LogDecorators, ptr }
%class.LogOutputList = type <{ [6 x ptr], i32, [4 x i8] }>
%class.LogDecorators = type { i32 }
%class.CgroupV2Controller = type { %class.CgroupController, ptr, ptr, i8, ptr }
%class.CgroupController = type { ptr }
%class.CgroupV2MemoryController = type { %class.CgroupMemoryController, %class.CgroupV2Controller }
%class.CgroupMemoryController = type { ptr }

@.str.31 = private unnamed_addr constant [17 x i8] c"/memory.swap.max\00", align 1
@.str.32 = private unnamed_addr constant [22 x i8] c"Swap Limit failed: %d\00", align 1
@.str.33 = private unnamed_addr constant [19 x i8] c"Swap Limit is: %ld\00", align 1
@.str.34 = private unnamed_addr constant [30 x i8] c"Memory and Swap Limit is: %ld\00", align 1
@_ZN16LogTagSetMappingILN6LogTag4typeE105ELS1_25ELS1_0ELS1_0ELS1_0ELS1_0EE7_tagsetE = linkonce_odr hidden global %class.LogTagSet zeroinitializer, comdat, align 8

; Function Attrs: mustprogress nounwind uwtable
define linkonce_odr hidden noundef zeroext i1 @_ZNK13LogOutputList8is_levelEN8LogLevel4typeE(ptr noundef nonnull align 8 dereferenceable(52) %0, i32 noundef %1) #1 comdat align 2 {
  %3 = alloca ptr, align 8
  %4 = alloca i32, align 4
  store ptr %0, ptr %3, align 8
  store i32 %1, ptr %4, align 4
  %5 = load ptr, ptr %3, align 8
  %6 = getelementptr inbounds %class.LogOutputList, ptr %5, i32 0, i32 0
  %7 = load i32, ptr %4, align 4
  %8 = zext i32 %7 to i64
  %9 = getelementptr inbounds [6 x ptr], ptr %6, i64 0, i64 %8
  %10 = load volatile ptr, ptr %9, align 8
  %11 = icmp ne ptr %10, null
  ret i1 %11
}

; Function Attrs: mustprogress nounwind uwtable
define linkonce_odr hidden noundef zeroext i1 @_ZNK9LogTagSet8is_levelEN8LogLevel4typeE(ptr noundef nonnull align 8 dereferenceable(112) %0, i32 noundef %1) #1 comdat align 2 {
  %3 = alloca ptr, align 8
  %4 = alloca i32, align 4
  store ptr %0, ptr %3, align 8
  store i32 %1, ptr %4, align 4
  %5 = load ptr, ptr %3, align 8
  %6 = getelementptr inbounds %class.LogTagSet, ptr %5, i32 0, i32 4
  %7 = load i32, ptr %4, align 4
  %8 = call noundef zeroext i1 @_ZNK13LogOutputList8is_levelEN8LogLevel4typeE(ptr noundef nonnull align 8 dereferenceable(52) %6, i32 noundef %7)
  ret i1 %8
}

; Function Attrs: mustprogress nounwind uwtable
define linkonce_odr hidden noundef nonnull align 8 dereferenceable(112) ptr @_ZN16LogTagSetMappingILN6LogTag4typeE105ELS1_25ELS1_0ELS1_0ELS1_0ELS1_0EE6tagsetEv() #1 comdat align 2 {
  ret ptr @_ZN16LogTagSetMappingILN6LogTag4typeE105ELS1_25ELS1_0ELS1_0ELS1_0ELS1_0EE7_tagsetE
}

; Function Attrs: mustprogress nounwind uwtable
define linkonce_odr hidden noundef zeroext i1 @_ZN7LogImplILN6LogTag4typeE105ELS1_25ELS1_0ELS1_0ELS1_0ELS1_0EE8is_levelEN8LogLevel4typeE(i32 noundef %0) #1 comdat align 2 {
  %2 = alloca i32, align 4
  store i32 %0, ptr %2, align 4
  %3 = call noundef nonnull align 8 dereferenceable(112) ptr @_ZN16LogTagSetMappingILN6LogTag4typeE105ELS1_25ELS1_0ELS1_0ELS1_0ELS1_0EE6tagsetEv()
  %4 = load i32, ptr %2, align 4
  %5 = call noundef zeroext i1 @_ZNK9LogTagSet8is_levelEN8LogLevel4typeE(ptr noundef nonnull align 8 dereferenceable(112) %3, i32 noundef %4)
  ret i1 %5
}

; Function Attrs: mustprogress nounwind uwtable
define linkonce_odr hidden noundef ptr @_ZN24CgroupV2MemoryController6readerEv(ptr noundef nonnull align 8 dereferenceable(48) %0) #1 comdat align 2 {
  %2 = alloca ptr, align 8
  store ptr %0, ptr %2, align 8
  %3 = load ptr, ptr %2, align 8
  %4 = getelementptr inbounds %class.CgroupV2MemoryController, ptr %3, i32 0, i32 1
  ret ptr %4
}

; Function Attrs: mustprogress nounwind uwtable
define hidden noundef i64 @_ZN24CgroupV2MemoryController30memory_and_swap_limit_in_bytesEmm(ptr noundef nonnull align 8 dereferenceable(48) %0, i64 noundef %1, i64 noundef %2) unnamed_addr #1 align 2 {
  %4 = alloca i64, align 8
  %5 = alloca ptr, align 8
  %6 = alloca i64, align 8
  %7 = alloca i64, align 8
  %8 = alloca i64, align 8
  %9 = alloca i8, align 1
  %10 = alloca i64, align 8
  store ptr %0, ptr %5, align 8
  store i64 %1, ptr %6, align 8
  store i64 %2, ptr %7, align 8
  %11 = load ptr, ptr %5, align 8
  %12 = call noundef ptr @_ZN24CgroupV2MemoryController6readerEv(ptr noundef nonnull align 8 dereferenceable(48) %11)
  %13 = call noundef zeroext i1 @_ZN16CgroupController22read_number_handle_maxEPKcPl(ptr noundef nonnull align 8 dereferenceable(8) %12, ptr noundef @.str.31, ptr noundef %8)
  %14 = zext i1 %13 to i8
  store i8 %14, ptr %9, align 1
  %15 = load i8, ptr %9, align 1
  %16 = trunc i8 %15 to i1
  br i1 %16, label %24, label %17

17:                                               ; preds = %3
  %18 = call noundef zeroext i1 @_ZN7LogImplILN6LogTag4typeE105ELS1_25ELS1_0ELS1_0ELS1_0ELS1_0EE8is_levelEN8LogLevel4typeE(i32 noundef 1)
  br i1 %18, label %20, label %19

19:                                               ; preds = %17
  br label %21

20:                                               ; preds = %17
  call void (ptr, ...) @_ZN7LogImplILN6LogTag4typeE105ELS1_25ELS1_0ELS1_0ELS1_0ELS1_0EE5writeILN8LogLevel4typeE1EEEvPKcz(ptr noundef @.str.32, i32 noundef -2)
  br label %21

21:                                               ; preds = %20, %19
  %22 = load i64, ptr %6, align 8
  %23 = call noundef i64 @_ZN24CgroupV2MemoryController26read_memory_limit_in_bytesEm(ptr noundef nonnull align 8 dereferenceable(48) %11, i64 noundef %22)
  store i64 %23, ptr %4, align 8
  br label %45

24:                                               ; preds = %3
  %25 = call noundef zeroext i1 @_ZN7LogImplILN6LogTag4typeE105ELS1_25ELS1_0ELS1_0ELS1_0ELS1_0EE8is_levelEN8LogLevel4typeE(i32 noundef 1)
  br i1 %25, label %27, label %26

26:                                               ; preds = %24
  br label %29

27:                                               ; preds = %24
  %28 = load i64, ptr %8, align 8
  call void (ptr, ...) @_ZN7LogImplILN6LogTag4typeE105ELS1_25ELS1_0ELS1_0ELS1_0ELS1_0EE5writeILN8LogLevel4typeE1EEEvPKcz(ptr noundef @.str.33, i64 noundef %28)
  br label %29

29:                                               ; preds = %27, %26
  %30 = load i64, ptr %8, align 8
  %31 = icmp sge i64 %30, 0
  br i1 %31, label %32, label %38

32:                                               ; preds = %29
  %33 = load i64, ptr %6, align 8
  %34 = call noundef i64 @_ZN24CgroupV2MemoryController26read_memory_limit_in_bytesEm(ptr noundef nonnull align 8 dereferenceable(48) %11, i64 noundef %33)
  store i64 %34, ptr %10, align 8
  %35 = load i64, ptr %10, align 8
  %36 = load i64, ptr %8, align 8
  %37 = add nsw i64 %35, %36
  store i64 %37, ptr %4, align 8
  br label %45

38:                                               ; preds = %29
  %39 = call noundef zeroext i1 @_ZN7LogImplILN6LogTag4typeE105ELS1_25ELS1_0ELS1_0ELS1_0ELS1_0EE8is_levelEN8LogLevel4typeE(i32 noundef 1)
  br i1 %39, label %41, label %40

40:                                               ; preds = %38
  br label %43

41:                                               ; preds = %38
  %42 = load i64, ptr %8, align 8
  call void (ptr, ...) @_ZN7LogImplILN6LogTag4typeE105ELS1_25ELS1_0ELS1_0ELS1_0ELS1_0EE5writeILN8LogLevel4typeE1EEEvPKcz(ptr noundef @.str.34, i64 noundef %42)
  br label %43

43:                                               ; preds = %41, %40
  %44 = load i64, ptr %8, align 8
  store i64 %44, ptr %4, align 8
  br label %45

45:                                               ; preds = %43, %32, %21
  %46 = load i64, ptr %4, align 8
  ret i64 %46
}