; Function Attrs: mustprogress nounwind uwtable
define hidden noundef i64 @_ZN24CgroupV2MemoryController30memory_and_swap_limit_in_bytesEmm(ptr noundef nonnull align 8 dereferenceable(48) %0, i64 noundef %1, i64 %2) unnamed_addr #0 align 2 {
  %4 = alloca i64, align 8
  %5 = getelementptr inbounds i8, ptr %0, i64 8
  %6 = call noundef zeroext i1 @_ZN16CgroupController22read_number_handle_maxEPKcPl(ptr noundef nonnull align 8 dereferenceable(8) %5, ptr noundef nonnull @.str.31, ptr noundef nonnull %4) #8
  %7 = load volatile ptr, ptr getelementptr inbounds (i8, ptr @_ZN16LogTagSetMappingILN6LogTag4typeE105ELS1_25ELS1_0ELS1_0ELS1_0ELS1_0EE7_tagsetE, i64 48), align 8
  %.not5 = icmp eq ptr %7, null
  br i1 %6, label %12, label %8

8:                                                ; preds = %3
  br i1 %.not5, label %10, label %9

9:                                                ; preds = %8
  call void (ptr, ...) @_ZN7LogImplILN6LogTag4typeE105ELS1_25ELS1_0ELS1_0ELS1_0ELS1_0EE5writeILN8LogLevel4typeE1EEEvPKcz(ptr noundef nonnull @.str.32, i32 noundef -2)
  br label %10

10:                                               ; preds = %8, %9
  %11 = call noundef i64 @_ZN24CgroupV2MemoryController26read_memory_limit_in_bytesEm(ptr noundef nonnull align 8 dereferenceable(48) %0, i64 noundef %1)
  br label %25

12:                                               ; preds = %3
  br i1 %.not5, label %15, label %13

13:                                               ; preds = %12
  %14 = load i64, ptr %4, align 8
  call void (ptr, ...) @_ZN7LogImplILN6LogTag4typeE105ELS1_25ELS1_0ELS1_0ELS1_0ELS1_0EE5writeILN8LogLevel4typeE1EEEvPKcz(ptr noundef nonnull @.str.33, i64 noundef %14)
  br label %15

15:                                               ; preds = %12, %13
  %16 = load i64, ptr %4, align 8
  %17 = icmp sgt i64 %16, -1
  br i1 %17, label %18, label %22

18:                                               ; preds = %15
  %19 = call noundef i64 @_ZN24CgroupV2MemoryController26read_memory_limit_in_bytesEm(ptr noundef nonnull align 8 dereferenceable(48) %0, i64 noundef %1)
  %20 = load i64, ptr %4, align 8
  %21 = add nsw i64 %20, %19
  br label %25

22:                                               ; preds = %15
  %23 = load volatile ptr, ptr getelementptr inbounds (i8, ptr @_ZN16LogTagSetMappingILN6LogTag4typeE105ELS1_25ELS1_0ELS1_0ELS1_0ELS1_0EE7_tagsetE, i64 48), align 8
  %.not6 = icmp eq ptr %23, null
  br i1 %.not6, label %25, label %24

24:                                               ; preds = %22
  call void (ptr, ...) @_ZN7LogImplILN6LogTag4typeE105ELS1_25ELS1_0ELS1_0ELS1_0ELS1_0EE5writeILN8LogLevel4typeE1EEEvPKcz(ptr noundef nonnull @.str.34, i64 noundef %16)
  %.pre = load i64, ptr %4, align 8
  br label %25

25:                                               ; preds = %24, %22, %18, %10
  %.0 = phi i64 [ %21, %18 ], [ %11, %10 ], [ %16, %22 ], [ %.pre, %24 ]
  ret i64 %.0
}